target datalayout = "e-m:e-p270:32:32-p271:32:32-p272:64:64-i64:64-i128:128-f80:128-n8:16:32:64-S128"
target triple = "x86_64-pc-linux-gnu"

%"class.std::__shared_count" = type { ptr }
%"class.std::__cxx11::basic_string" = type { %"struct.std::__cxx11::basic_string<char>::_Alloc_hider", i64, %union.anon }
%"struct.std::__cxx11::basic_string<char>::_Alloc_hider" = type { ptr }
%union.anon = type { i64, [8 x i8] }
%"class.std::__shared_ptr" = type { ptr, %"class.std::__shared_count" }
%struct.CvWindow = type { %struct.CvUIBase, ptr, ptr, ptr, %"class.std::__cxx11::basic_string", i32, i32, i32, ptr, ptr, %"class.std::vector" }
%struct.CvUIBase = type { i32 }
%"class.std::vector" = type { %"struct.std::_Vector_base" }
%"struct.std::_Vector_base" = type { %"struct.std::_Vector_base<std::shared_ptr<CvTrackbar>, std::allocator<std::shared_ptr<CvTrackbar>>>::_Vector_impl" }
%"struct.std::_Vector_base<std::shared_ptr<CvTrackbar>, std::allocator<std::shared_ptr<CvTrackbar>>>::_Vector_impl" = type { %"struct.std::_Vector_base<std::shared_ptr<CvTrackbar>, std::allocator<std::shared_ptr<CvTrackbar>>>::_Vector_impl_data" }
%"struct.std::_Vector_base<std::shared_ptr<CvTrackbar>, std::allocator<std::shared_ptr<CvTrackbar>>>::_Vector_impl_data" = type { ptr, ptr, ptr }

; Function Attrs: mustprogress nounwind uwtable
define linkonce_odr hidden noundef ptr @_ZNKSt12__shared_ptrI8CvWindowLN9__gnu_cxx12_Lock_policyE2EE3getEv(ptr noundef nonnull align 8 dereferenceable(16) %0) #7 comdat align 2 {
  %2 = alloca ptr, align 8
  store ptr %0, ptr %2, align 8, !tbaa !72
  %3 = load ptr, ptr %2, align 8
  %4 = getelementptr inbounds nuw %"class.std::__shared_ptr", ptr %3, i32 0, i32 0
  %5 = load ptr, ptr %4, align 8, !tbaa !74
  ret ptr %5
}

; Function Attrs: mustprogress nounwind uwtable
define linkonce_odr hidden noundef ptr @_ZNKSt19__shared_ptr_accessI8CvWindowLN9__gnu_cxx12_Lock_policyE2ELb0ELb0EE6_M_getEv(ptr noundef nonnull align 1 dereferenceable(1) %0) #7 comdat align 2 {
  %2 = alloca ptr, align 8
  store ptr %0, ptr %2, align 8, !tbaa !103
  %3 = load ptr, ptr %2, align 8
  %4 = call noundef ptr @_ZNKSt12__shared_ptrI8CvWindowLN9__gnu_cxx12_Lock_policyE2EE3getEv(ptr noundef nonnull align 8 dereferenceable(16) %3) #3
  ret ptr %4
}

; Function Attrs: mustprogress nounwind uwtable
define linkonce_odr hidden noundef ptr @_ZNKSt19__shared_ptr_accessI8CvWindowLN9__gnu_cxx12_Lock_policyE2ELb0ELb0EEptEv(ptr noundef nonnull align 1 dereferenceable(1) %0) #7 comdat align 2 {
  %2 = alloca ptr, align 8
  store ptr %0, ptr %2, align 8, !tbaa !103
  %3 = load ptr, ptr %2, align 8
  %4 = call noundef ptr @_ZNKSt19__shared_ptr_accessI8CvWindowLN9__gnu_cxx12_Lock_policyE2ELb0ELb0EE6_M_getEv(ptr noundef nonnull align 1 dereferenceable(1) %3) #3
  ret ptr %4
}

; Function Attrs: mustprogress uwtable
define internal noundef zeroext i1 @_ZL14setModeWindow_RKSt10shared_ptrI8CvWindowEi(ptr noundef nonnull align 8 dereferenceable(16) %0, i32 noundef %1) #4 {
  %3 = alloca i1, align 1
  %4 = alloca ptr, align 8
  %5 = alloca i32, align 4
  store ptr %0, ptr %4, align 8, !tbaa !86
  store i32 %1, ptr %5, align 4, !tbaa !3
  %6 = load ptr, ptr %4, align 8, !tbaa !86
  %7 = call noundef ptr @_ZNKSt19__shared_ptr_accessI8CvWindowLN9__gnu_cxx12_Lock_policyE2ELb0ELb0EEptEv(ptr noundef nonnull align 1 dereferenceable(1) %6) #3
  %8 = getelementptr inbounds nuw %struct.CvWindow, ptr %7, i32 0, i32 6
  %9 = load i32, ptr %8, align 4, !tbaa !105
  %10 = and i32 %9, 1
  %11 = icmp ne i32 %10, 0
  br i1 %11, label %12, label %13

12:                                               ; preds = %2
  store i1 false, ptr %3, align 1
  br label %60

13:                                               ; preds = %2
  %14 = load ptr, ptr %4, align 8, !tbaa !86
  %15 = call noundef ptr @_ZNKSt19__shared_ptr_accessI8CvWindowLN9__gnu_cxx12_Lock_policyE2ELb0ELb0EEptEv(ptr noundef nonnull align 1 dereferenceable(1) %14) #3
  %16 = getelementptr inbounds nuw %struct.CvWindow, ptr %15, i32 0, i32 7
  %17 = load i32, ptr %16, align 8, !tbaa !100
  %18 = load i32, ptr %5, align 4, !tbaa !3
  %19 = icmp eq i32 %17, %18
  br i1 %19, label %20, label %21

20:                                               ; preds = %13
  store i1 true, ptr %3, align 1
  br label %60

21:                                               ; preds = %13
  %22 = load ptr, ptr %4, align 8, !tbaa !86
  %23 = call noundef ptr @_ZNKSt19__shared_ptr_accessI8CvWindowLN9__gnu_cxx12_Lock_policyE2ELb0ELb0EEptEv(ptr noundef nonnull align 1 dereferenceable(1) %22) #3
  %24 = getelementptr inbounds nuw %struct.CvWindow, ptr %23, i32 0, i32 7
  %25 = load i32, ptr %24, align 8, !tbaa !100
  %26 = icmp eq i32 %25, 1
  br i1 %26, label %27, label %40

27:                                               ; preds = %21
  %28 = load i32, ptr %5, align 4, !tbaa !3
  %29 = icmp eq i32 %28, 0
  br i1 %29, label %30, label %40

30:                                               ; preds = %27
  %31 = load ptr, ptr %4, align 8, !tbaa !86
  %32 = call noundef ptr @_ZNKSt19__shared_ptr_accessI8CvWindowLN9__gnu_cxx12_Lock_policyE2ELb0ELb0EEptEv(ptr noundef nonnull align 1 dereferenceable(1) %31) #3
  %33 = getelementptr inbounds nuw %struct.CvWindow, ptr %32, i32 0, i32 2
  %34 = load ptr, ptr %33, align 8, !tbaa !106
  %35 = call i64 @gtk_window_get_type() #28
  %36 = call ptr @g_type_check_instance_cast(ptr noundef %34, i64 noundef %35)
  call void @gtk_window_unfullscreen(ptr noundef %36)
  %37 = load ptr, ptr %4, align 8, !tbaa !86
  %38 = call noundef ptr @_ZNKSt19__shared_ptr_accessI8CvWindowLN9__gnu_cxx12_Lock_policyE2ELb0ELb0EEptEv(ptr noundef nonnull align 1 dereferenceable(1) %37) #3
  %39 = getelementptr inbounds nuw %struct.CvWindow, ptr %38, i32 0, i32 7
  store i32 0, ptr %39, align 8, !tbaa !100
  store i1 true, ptr %3, align 1
  br label %60

40:                                               ; preds = %27, %21
  %41 = load ptr, ptr %4, align 8, !tbaa !86
  %42 = call noundef ptr @_ZNKSt19__shared_ptr_accessI8CvWindowLN9__gnu_cxx12_Lock_policyE2ELb0ELb0EEptEv(ptr noundef nonnull align 1 dereferenceable(1) %41) #3
  %43 = getelementptr inbounds nuw %struct.CvWindow, ptr %42, i32 0, i32 7
  %44 = load i32, ptr %43, align 8, !tbaa !100
  %45 = icmp eq i32 %44, 0
  br i1 %45, label %46, label %59

46:                                               ; preds = %40
  %47 = load i32, ptr %5, align 4, !tbaa !3
  %48 = icmp eq i32 %47, 1
  br i1 %48, label %49, label %59

49:                                               ; preds = %46
  %50 = load ptr, ptr %4, align 8, !tbaa !86
  %51 = call noundef ptr @_ZNKSt19__shared_ptr_accessI8CvWindowLN9__gnu_cxx12_Lock_policyE2ELb0ELb0EEptEv(ptr noundef nonnull align 1 dereferenceable(1) %50) #3
  %52 = getelementptr inbounds nuw %struct.CvWindow, ptr %51, i32 0, i32 2
  %53 = load ptr, ptr %52, align 8, !tbaa !106
  %54 = call i64 @gtk_window_get_type() #28
  %55 = call ptr @g_type_check_instance_cast(ptr noundef %53, i64 noundef %54)
  call void @gtk_window_fullscreen(ptr noundef %55)
  %56 = load ptr, ptr %4, align 8, !tbaa !86
  %57 = call noundef ptr @_ZNKSt19__shared_ptr_accessI8CvWindowLN9__gnu_cxx12_Lock_policyE2ELb0ELb0EEptEv(ptr noundef nonnull align 1 dereferenceable(1) %56) #3
  %58 = getelementptr inbounds nuw %struct.CvWindow, ptr %57, i32 0, i32 7
  store i32 1, ptr %58, align 8, !tbaa !100
  store i1 true, ptr %3, align 1
  br label %60

59:                                               ; preds = %46, %40
  store i1 false, ptr %3, align 1
  br label %60

60:                                               ; preds = %59, %49, %30, %20, %12
  %61 = load i1, ptr %3, align 1
  ret i1 %61
}