; Function Attrs: mustprogress uwtable
define internal fastcc void @_ZL14setModeWindow_RKSt10shared_ptrI8CvWindowEi(ptr noundef nonnull readonly align 8 captures(none) dereferenceable(16) %0, i32 noundef %1) unnamed_addr #3 {
  %3 = load ptr, ptr %0, align 8, !tbaa !48
  %4 = getelementptr inbounds nuw i8, ptr %3, i64 68
  %5 = load i32, ptr %4, align 4, !tbaa !83
  %6 = and i32 %5, 1
  %.not = icmp eq i32 %6, 0
  br i1 %.not, label %7, label %29

7:                                                ; preds = %2
  %8 = getelementptr inbounds nuw i8, ptr %3, i64 72
  %9 = load i32, ptr %8, align 8, !tbaa !82
  %10 = icmp eq i32 %9, %1
  br i1 %10, label %29, label %11

11:                                               ; preds = %7
  %12 = icmp eq i32 %9, 1
  %13 = icmp eq i32 %1, 0
  %or.cond = and i1 %13, %12
  br i1 %or.cond, label %14, label %19

14:                                               ; preds = %11
  %15 = getelementptr inbounds nuw i8, ptr %3, i64 16
  %16 = load ptr, ptr %15, align 8, !tbaa !84
  %17 = tail call i64 @gtk_window_get_type() #30
  %18 = tail call ptr @g_type_check_instance_cast(ptr noundef %16, i64 noundef %17)
  tail call void @gtk_window_unfullscreen(ptr noundef %18)
  br label %.sink.split

19:                                               ; preds = %11
  %20 = icmp eq i32 %9, 0
  %21 = icmp eq i32 %1, 1
  %or.cond3 = and i1 %21, %20
  br i1 %or.cond3, label %22, label %29

22:                                               ; preds = %19
  %23 = getelementptr inbounds nuw i8, ptr %3, i64 16
  %24 = load ptr, ptr %23, align 8, !tbaa !84
  %25 = tail call i64 @gtk_window_get_type() #30
  %26 = tail call ptr @g_type_check_instance_cast(ptr noundef %24, i64 noundef %25)
  tail call void @gtk_window_fullscreen(ptr noundef %26)
  br label %.sink.split

.sink.split:                                      ; preds = %14, %22
  %.sink = phi i32 [ 1, %22 ], [ 0, %14 ]
  %27 = load ptr, ptr %0, align 8, !tbaa !48
  %28 = getelementptr inbounds nuw i8, ptr %27, i64 72
  store i32 %.sink, ptr %28, align 8, !tbaa !82
  br label %29

29:                                               ; preds = %.sink.split, %19, %7, %2
  ret void
}